; Function Attrs: nounwind uwtable
define internal ptr @pysqlite_connection_get_total_changes(ptr noundef readonly captures(none) %0, ptr readnone captures(none) %1) #0 {
  %3 = getelementptr inbounds nuw i8, ptr %0, i64 56
  %4 = load i32, ptr %3, align 8, !tbaa !3
  %.not.i = icmp eq i32 %4, 0
  br i1 %.not.i, label %5, label %9

5:                                                ; preds = %2
  %6 = getelementptr i8, ptr %0, i64 8
  %.val.i = load ptr, ptr %6, align 8, !tbaa !16
  %7 = tail call ptr @PyType_GetModuleByDef(ptr noundef %.val.i, ptr noundef nonnull @_sqlite3module) #7
  %8 = tail call ptr @PyModule_GetState(ptr noundef %7) #7
  br label %pysqlite_check_connection.exit.thread

9:                                                ; preds = %2
  %10 = getelementptr inbounds nuw i8, ptr %0, i64 16
  %11 = load ptr, ptr %10, align 8, !tbaa !17
  %.not5.i = icmp eq ptr %11, null
  br i1 %.not5.i, label %12, label %pysqlite_check_connection.exit

12:                                               ; preds = %9
  %13 = getelementptr inbounds nuw i8, ptr %0, i64 24
  %14 = load ptr, ptr %13, align 8, !tbaa !18
  br label %pysqlite_check_connection.exit.thread

pysqlite_check_connection.exit.thread:            ; preds = %5, %12
  %.sink.i = phi ptr [ %14, %12 ], [ %8, %5 ]
  %.str.1.sink.i = phi ptr [ @.str.1, %12 ], [ @.str, %5 ]
  %15 = getelementptr inbounds nuw i8, ptr %.sink.i, i64 64
  %16 = load ptr, ptr %15, align 8, !tbaa !19
  tail call void @PyErr_SetString(ptr noundef %16, ptr noundef nonnull %.str.1.sink.i) #7
  br label %20

pysqlite_check_connection.exit:                   ; preds = %9
  %17 = tail call i32 @sqlite3_total_changes(ptr noundef nonnull %11) #7
  %18 = sext i32 %17 to i64
  %19 = tail call ptr @PyLong_FromLong(i64 noundef %18) #7
  br label %20

20:                                               ; preds = %pysqlite_check_connection.exit.thread, %pysqlite_check_connection.exit
  %.0 = phi ptr [ %19, %pysqlite_check_connection.exit ], [ null, %pysqlite_check_connection.exit.thread ]
  ret ptr %.0
}